target datalayout = "e-m:e-p270:32:32-p271:32:32-p272:64:64-i64:64-i128:128-f80:128-n8:16:32:64-S128"
target triple = "x86_64-pc-linux-gnu"

%"class.std::__cxx11::basic_string" = type { %"struct.std::__cxx11::basic_string<char>::_Alloc_hider", i64, %union.anon.0 }
%"struct.std::__cxx11::basic_string<char>::_Alloc_hider" = type { ptr }
%union.anon.0 = type { i64, [8 x i8] }

@.str = private unnamed_addr constant [20 x i8] c"invalid utf8 char: \00", align 1
@_ZTISt13runtime_error = external constant ptr

; Function Attrs: mustprogress uwtable
define linkonce_odr void @_ZStplIcSt11char_traitsIcESaIcEENSt7__cxx1112basic_stringIT_T0_T1_EEPKS5_OS8_(ptr dead_on_unwind noalias writable sret(%"class.std::__cxx11::basic_string") align 8 %0, ptr noundef %1, ptr noundef nonnull align 8 dereferenceable(32) %2) #4 comdat {
  %4 = alloca ptr, align 8
  %5 = alloca ptr, align 8
  %6 = alloca ptr, align 8
  store ptr %0, ptr %4, align 8
  store ptr %1, ptr %5, align 8
  store ptr %2, ptr %6, align 8
  %7 = load ptr, ptr %6, align 8
  %8 = load ptr, ptr %5, align 8
  %9 = call noundef nonnull align 8 dereferenceable(32) ptr @_ZNSt7__cxx1112basic_stringIcSt11char_traitsIcESaIcEE6insertEmPKc(ptr noundef nonnull align 8 dereferenceable(32) %7, i64 noundef 0, ptr noundef %8)
  call void @_ZNSt7__cxx1112basic_stringIcSt11char_traitsIcESaIcEEC1EOS4_(ptr noundef nonnull align 8 dereferenceable(32) %0, ptr noundef nonnull align 8 dereferenceable(32) %9) #3
  ret void
}

; Function Attrs: mustprogress uwtable
define noundef i32 @_ZN4pkpy7utf8lenEhb(i8 noundef zeroext %0, i1 noundef zeroext %1) #4 personality ptr @__gxx_personality_v0 {
  %3 = alloca i32, align 4
  %4 = alloca i8, align 1
  %5 = alloca i8, align 1
  %6 = alloca %"class.std::__cxx11::basic_string", align 8
  %7 = alloca %"class.std::__cxx11::basic_string", align 8
  %8 = alloca ptr, align 8
  %9 = alloca i32, align 4
  %10 = alloca i1, align 1
  store i8 %0, ptr %4, align 1
  %11 = zext i1 %1 to i8
  store i8 %11, ptr %5, align 1
  %12 = load i8, ptr %4, align 1
  %13 = zext i8 %12 to i32
  %14 = and i32 %13, 128
  %15 = icmp eq i32 %14, 0
  br i1 %15, label %16, label %17

16:                                               ; preds = %2
  store i32 1, ptr %3, align 4
  br label %69

17:                                               ; preds = %2
  %18 = load i8, ptr %4, align 1
  %19 = zext i8 %18 to i32
  %20 = and i32 %19, 224
  %21 = icmp eq i32 %20, 192
  br i1 %21, label %22, label %23

22:                                               ; preds = %17
  store i32 2, ptr %3, align 4
  br label %69

23:                                               ; preds = %17
  %24 = load i8, ptr %4, align 1
  %25 = zext i8 %24 to i32
  %26 = and i32 %25, 240
  %27 = icmp eq i32 %26, 224
  br i1 %27, label %28, label %29

28:                                               ; preds = %23
  store i32 3, ptr %3, align 4
  br label %69

29:                                               ; preds = %23
  %30 = load i8, ptr %4, align 1
  %31 = zext i8 %30 to i32
  %32 = and i32 %31, 248
  %33 = icmp eq i32 %32, 240
  br i1 %33, label %34, label %35

34:                                               ; preds = %29
  store i32 4, ptr %3, align 4
  br label %69

35:                                               ; preds = %29
  %36 = load i8, ptr %4, align 1
  %37 = zext i8 %36 to i32
  %38 = and i32 %37, 252
  %39 = icmp eq i32 %38, 248
  br i1 %39, label %40, label %41

40:                                               ; preds = %35
  store i32 5, ptr %3, align 4
  br label %69

41:                                               ; preds = %35
  %42 = load i8, ptr %4, align 1
  %43 = zext i8 %42 to i32
  %44 = and i32 %43, 254
  %45 = icmp eq i32 %44, 252
  br i1 %45, label %46, label %47

46:                                               ; preds = %41
  store i32 6, ptr %3, align 4
  br label %69

47:                                               ; preds = %41
  %48 = load i8, ptr %5, align 1
  %49 = trunc i8 %48 to i1
  br i1 %49, label %68, label %50

50:                                               ; preds = %47
  store i1 true, ptr %10, align 1
  %51 = call ptr @__cxa_allocate_exception(i64 16) #3
  %52 = load i8, ptr %4, align 1
  %53 = zext i8 %52 to i32
  call void @_ZNSt7__cxx119to_stringEi(ptr dead_on_unwind writable sret(%"class.std::__cxx11::basic_string") align 8 %7, i32 noundef %53) #3
  invoke void @_ZStplIcSt11char_traitsIcESaIcEENSt7__cxx1112basic_stringIT_T0_T1_EEPKS5_OS8_(ptr dead_on_unwind writable sret(%"class.std::__cxx11::basic_string") align 8 %6, ptr noundef @.str, ptr noundef nonnull align 8 dereferenceable(32) %7)
          to label %54 unwind label %56

54:                                               ; preds = %50
  invoke void @_ZNSt13runtime_errorC1ERKNSt7__cxx1112basic_stringIcSt11char_traitsIcESaIcEEE(ptr noundef nonnull align 8 dereferenceable(16) %51, ptr noundef nonnull align 8 dereferenceable(32) %6)
          to label %55 unwind label %60

55:                                               ; preds = %54
  store i1 false, ptr %10, align 1
  invoke void @__cxa_throw(ptr %51, ptr @_ZTISt13runtime_error, ptr @_ZNSt13runtime_errorD1Ev) #13
          to label %76 unwind label %60

56:                                               ; preds = %50
  %57 = landingpad { ptr, i32 }
          cleanup
  %58 = extractvalue { ptr, i32 } %57, 0
  store ptr %58, ptr %8, align 8
  %59 = extractvalue { ptr, i32 } %57, 1
  store i32 %59, ptr %9, align 4
  br label %64

60:                                               ; preds = %55, %54
  %61 = landingpad { ptr, i32 }
          cleanup
  %62 = extractvalue { ptr, i32 } %61, 0
  store ptr %62, ptr %8, align 8
  %63 = extractvalue { ptr, i32 } %61, 1
  store i32 %63, ptr %9, align 4
  call void @_ZNSt7__cxx1112basic_stringIcSt11char_traitsIcESaIcEED1Ev(ptr noundef nonnull align 8 dereferenceable(32) %6) #3
  br label %64

64:                                               ; preds = %60, %56
  call void @_ZNSt7__cxx1112basic_stringIcSt11char_traitsIcESaIcEED1Ev(ptr noundef nonnull align 8 dereferenceable(32) %7) #3
  %65 = load i1, ptr %10, align 1
  br i1 %65, label %66, label %67

66:                                               ; preds = %64
  call void @__cxa_free_exception(ptr %51) #3
  br label %67

67:                                               ; preds = %66, %64
  br label %71

68:                                               ; preds = %47
  store i32 0, ptr %3, align 4
  br label %69

69:                                               ; preds = %68, %46, %40, %34, %28, %22, %16
  %70 = load i32, ptr %3, align 4
  ret i32 %70

71:                                               ; preds = %67
  %72 = load ptr, ptr %8, align 8
  %73 = load i32, ptr %9, align 4
  %74 = insertvalue { ptr, i32 } poison, ptr %72, 0
  %75 = insertvalue { ptr, i32 } %74, i32 %73, 1
  resume { ptr, i32 } %75

76:                                               ; preds = %55
  unreachable
}