; Function Attrs: mustprogress uwtable
define noundef range(i32 0, 7) i32 @_ZN4pkpy7utf8lenEhb(i8 noundef zeroext %0, i1 noundef zeroext %1) local_unnamed_addr #3 personality ptr @__gxx_personality_v0 {
  %3 = alloca %"class.std::__cxx11::basic_string", align 8
  %4 = alloca %"class.std::__cxx11::basic_string", align 8
  %5 = zext i8 %0 to i32
  %6 = icmp sgt i8 %0, -1
  br i1 %6, label %31, label %7

7:                                                ; preds = %2
  %8 = and i32 %5, 224
  %9 = icmp eq i32 %8, 192
  br i1 %9, label %31, label %10

10:                                               ; preds = %7
  %11 = and i32 %5, 240
  %12 = icmp eq i32 %11, 224
  br i1 %12, label %31, label %13

13:                                               ; preds = %10
  %14 = and i32 %5, 248
  %15 = icmp eq i32 %14, 240
  br i1 %15, label %31, label %16

16:                                               ; preds = %13
  %17 = and i32 %5, 252
  %18 = icmp eq i32 %17, 248
  br i1 %18, label %31, label %19

19:                                               ; preds = %16
  %20 = and i32 %5, 254
  %21 = icmp eq i32 %20, 252
  %brmerge = or i1 %21, %1
  %.mux = select i1 %21, i32 6, i32 0
  br i1 %brmerge, label %31, label %22

22:                                               ; preds = %19
  %23 = tail call ptr @__cxa_allocate_exception(i64 16) #23
  call void @_ZNSt7__cxx119to_stringEi(ptr dead_on_unwind nonnull writable sret(%"class.std::__cxx11::basic_string") align 8 %4, i32 noundef %5) #23
  %24 = invoke noundef nonnull align 8 dereferenceable(32) ptr @_ZNSt7__cxx1112basic_stringIcSt11char_traitsIcESaIcEE6insertEmPKc(ptr noundef nonnull align 8 dereferenceable(32) %4, i64 noundef 0, ptr noundef nonnull @.str)
          to label %25 unwind label %.thread

25:                                               ; preds = %22
  call void @_ZNSt7__cxx1112basic_stringIcSt11char_traitsIcESaIcEEC1EOS4_(ptr noundef nonnull align 8 dereferenceable(32) %3, ptr noundef nonnull align 8 dereferenceable(32) %24) #23
  invoke void @_ZNSt13runtime_errorC1ERKNSt7__cxx1112basic_stringIcSt11char_traitsIcESaIcEEE(ptr noundef nonnull align 8 dereferenceable(16) %23, ptr noundef nonnull align 8 dereferenceable(32) %3)
          to label %26 unwind label %28

26:                                               ; preds = %25
  invoke void @__cxa_throw(ptr nonnull %23, ptr nonnull @_ZTISt13runtime_error, ptr nonnull @_ZNSt13runtime_errorD1Ev) #24
          to label %33 unwind label %28

.thread:                                          ; preds = %22
  %27 = landingpad { ptr, i32 }
          cleanup
  call void @_ZNSt7__cxx1112basic_stringIcSt11char_traitsIcESaIcEED1Ev(ptr noundef nonnull align 8 dereferenceable(32) %4) #23
  br label %30

28:                                               ; preds = %25, %26
  %.0 = phi i1 [ false, %26 ], [ true, %25 ]
  %29 = landingpad { ptr, i32 }
          cleanup
  call void @_ZNSt7__cxx1112basic_stringIcSt11char_traitsIcESaIcEED1Ev(ptr noundef nonnull align 8 dereferenceable(32) %3) #23
  call void @_ZNSt7__cxx1112basic_stringIcSt11char_traitsIcESaIcEED1Ev(ptr noundef nonnull align 8 dereferenceable(32) %4) #23
  br i1 %.0, label %30, label %32

30:                                               ; preds = %.thread, %28
  %.pn18 = phi { ptr, i32 } [ %27, %.thread ], [ %29, %28 ]
  call void @__cxa_free_exception(ptr %23) #23
  br label %32

31:                                               ; preds = %19, %16, %13, %10, %7, %2
  %.013 = phi i32 [ 1, %2 ], [ 2, %7 ], [ 3, %10 ], [ 4, %13 ], [ 5, %16 ], [ %.mux, %19 ]
  ret i32 %.013

32:                                               ; preds = %28, %30
  %.pn17 = phi { ptr, i32 } [ %29, %28 ], [ %.pn18, %30 ]
  resume { ptr, i32 } %.pn17

33:                                               ; preds = %26
  unreachable
}